; Function Attrs: mustprogress nofree norecurse nosync nounwind willreturn memory(argmem: readwrite) uwtable
define dso_local void @KeccakP1600_OverwriteBytesInLane(ptr noundef writeonly captures(none) %0, i32 noundef %1, ptr noundef readonly captures(none) %2, i32 noundef %3, i32 noundef %4) local_unnamed_addr #2 {
  %6 = shl i32 %1, 3
  %7 = zext i32 %6 to i64
  %8 = getelementptr inbounds nuw i8, ptr %0, i64 %7
  %9 = zext i32 %3 to i64
  %10 = getelementptr inbounds nuw i8, ptr %8, i64 %9
  %11 = zext i32 %4 to i64
  tail call void @llvm.memcpy.p0.p0.i64(ptr align 1 %10, ptr align 1 %2, i64 %11, i1 false)
  ret void
}